; Function Attrs: mustprogress nofree norecurse nosync nounwind willreturn memory(readwrite, argmem: write, inaccessiblemem: none) uwtable
define dso_local void @_ZN5ImGui11SetKeyOwnerE8ImGuiKeyji(i32 noundef %0, i32 noundef %1, i32 noundef %2) local_unnamed_addr #50 {
  %4 = load ptr, ptr @GImGui, align 8, !tbaa !211
  %5 = and i32 %0, 61440
  %.not.i = icmp eq i32 %5, 0
  br i1 %.not.i, label %_ZN5ImGui15GetKeyOwnerDataEP12ImGuiContext8ImGuiKey.exit, label %6

6:                                                ; preds = %3
  %7 = add i32 %0, -4096
  %8 = tail call i32 @llvm.fshl.i32(i32 %7, i32 %7, i32 20)
  %9 = icmp ult i32 %8, 8
  br i1 %9, label %switch.hole_check, label %_ZN5ImGui15GetKeyOwnerDataEP12ImGuiContext8ImGuiKey.exit

switch.hole_check:                                ; preds = %6
  %switch.maskindex = trunc nuw i32 %8 to i8
  %switch.shifted = lshr i8 -117, %switch.maskindex
  %switch.lobit = trunc i8 %switch.shifted to i1
  br i1 %switch.lobit, label %switch.lookup, label %_ZN5ImGui15GetKeyOwnerDataEP12ImGuiContext8ImGuiKey.exit

switch.lookup:                                    ; preds = %switch.hole_check
  %10 = zext nneg i32 %8 to i64
  %switch.gep = getelementptr inbounds nuw [8 x i32], ptr @switch.table._ZN5ImGui16DebugBreakButtonEPKcS1_, i64 0, i64 %10
  %switch.load = load i32, ptr %switch.gep, align 4
  br label %_ZN5ImGui15GetKeyOwnerDataEP12ImGuiContext8ImGuiKey.exit

_ZN5ImGui15GetKeyOwnerDataEP12ImGuiContext8ImGuiKey.exit: ; preds = %6, %switch.hole_check, %switch.lookup, %3
  %.0.i = phi i32 [ %0, %3 ], [ %switch.load, %switch.lookup ], [ %0, %switch.hole_check ], [ %0, %6 ]
  %11 = getelementptr inbounds nuw i8, ptr %4, i64 5156
  %12 = add nsw i32 %.0.i, -512
  %13 = sext i32 %12 to i64
  %14 = getelementptr inbounds [154 x %struct.ImGuiKeyOwnerData], ptr %11, i64 0, i64 %13
  %15 = getelementptr inbounds nuw i8, ptr %14, i64 4
  store i32 %1, ptr %15, align 4, !tbaa !564
  store i32 %1, ptr %14, align 4, !tbaa !566
  %16 = getelementptr inbounds nuw i8, ptr %14, i64 9
  %17 = lshr i32 %2, 21
  %18 = trunc i32 %17 to i8
  %19 = and i8 %18, 1
  store i8 %19, ptr %16, align 1, !tbaa !567
  %20 = and i32 %2, 1048576
  %.not = icmp eq i32 %20, 0
  %21 = select i1 %.not, i8 %19, i8 1
  %22 = getelementptr inbounds nuw i8, ptr %14, i64 8
  store i8 %21, ptr %22, align 4, !tbaa !568
  ret void
}